; Function Attrs: mustprogress uwtable
define dso_local void @_ZN3net17HpackOutputStream11AppendBytesEN4base16BasicStringPieceINSt7__cxx1112basic_stringIcSt11char_traitsIcESaIcEEEEE(ptr noundef nonnull align 8 dereferenceable(40) %this, ptr %buffer.coerce0, i64 %buffer.coerce1) local_unnamed_addr #2 align 2 personality ptr @__gxx_personality_v0 {
if.end:
  %buffer = alloca %"class.base::BasicStringPiece", align 8
  store ptr %buffer.coerce0, ptr %buffer, align 8
  %0 = getelementptr inbounds nuw i8, ptr %buffer, i64 8
  store i64 %buffer.coerce1, ptr %0, align 8
  %call4 = call noundef ptr @_ZNK4base16BasicStringPieceINSt7__cxx1112basic_stringIcSt11char_traitsIcESaIcEEEE4dataEv(ptr noundef nonnull align 8 dereferenceable(16) %buffer)
  %call5 = call noundef i64 @_ZNK4base16BasicStringPieceINSt7__cxx1112basic_stringIcSt11char_traitsIcESaIcEEEE4sizeEv(ptr noundef nonnull align 8 dereferenceable(16) %buffer)
  %call6 = call noundef nonnull align 8 dereferenceable(32) ptr @_ZNSt7__cxx1112basic_stringIcSt11char_traitsIcESaIcEE6appendEPKcm(ptr noundef nonnull align 8 dereferenceable(32) %this, ptr noundef %call4, i64 noundef %call5)
  ret void
}